; ModuleID = '999.c'
source_filename = "999.c"
target datalayout = "e-m:e-p270:32:32-p271:32:32-p272:64:64-i64:64-f80:128-n8:16:32:64-S128"
target triple = "x86_64-pc-linux-gnu"

@.str = private unnamed_addr constant [3 x i8] c"%s\00", align 1
@.str.1 = private unnamed_addr constant [3 x i8] c"%c\00", align 1

; Function Attrs: noinline nounwind uwtable
define dso_local i32 @main() #0 {
  %1 = alloca i32, align 4
  %2 = alloca [256 x i8], align 16
  %3 = alloca [256 x i8], align 16
  %4 = alloca [256 x i8], align 16
  %5 = alloca i32, align 4
  %6 = alloca i32, align 4
  %7 = alloca i32, align 4
  %8 = alloca i32, align 4
  %9 = alloca i32, align 4
  %10 = alloca i32, align 4
  %11 = alloca i32, align 4
  %12 = alloca i32, align 4
  %13 = alloca i32, align 4
  %14 = alloca i32, align 4
  %15 = alloca i32, align 4
  %16 = alloca i32, align 4
  %17 = alloca i32, align 4
  store i32 0, i32* %1, align 4
  %18 = getelementptr inbounds [256 x i8], [256 x i8]* %2, i64 0, i64 0
  %19 = call i32 (i8*, ...) @__isoc99_scanf(i8* getelementptr inbounds ([3 x i8], [3 x i8]* @.str, i64 0, i64 0), i8* %18)
  %20 = getelementptr inbounds [256 x i8], [256 x i8]* %3, i64 0, i64 0
  %21 = call i32 (i8*, ...) @__isoc99_scanf(i8* getelementptr inbounds ([3 x i8], [3 x i8]* @.str, i64 0, i64 0), i8* %20)
  %22 = getelementptr inbounds [256 x i8], [256 x i8]* %4, i64 0, i64 0
  %23 = call i32 (i8*, ...) @__isoc99_scanf(i8* getelementptr inbounds ([3 x i8], [3 x i8]* @.str, i64 0, i64 0), i8* %22)
  store i32 0, i32* %7, align 4
  store i32 0, i32* %8, align 4
  store i32 0, i32* %5, align 4
  br label %24

24:                                               ; preds = %34, %0
  %25 = load i32, i32* %5, align 4
  %26 = sext i32 %25 to i64
  %27 = getelementptr inbounds [256 x i8], [256 x i8]* %2, i64 0, i64 %26
  %28 = load i8, i8* %27, align 1
  %29 = sext i8 %28 to i32
  %30 = icmp ne i32 %29, 0
  br i1 %30, label %31, label %37

31:                                               ; preds = %24
  %32 = load i32, i32* %7, align 4
  %33 = add nsw i32 %32, 1
  store i32 %33, i32* %7, align 4
  br label %34

34:                                               ; preds = %31
  %35 = load i32, i32* %5, align 4
  %36 = add nsw i32 %35, 1
  store i32 %36, i32* %5, align 4
  br label %24

37:                                               ; preds = %24
  store i32 0, i32* %6, align 4
  br label %38

38:                                               ; preds = %48, %37
  %39 = load i32, i32* %6, align 4
  %40 = sext i32 %39 to i64
  %41 = getelementptr inbounds [256 x i8], [256 x i8]* %3, i64 0, i64 %40
  %42 = load i8, i8* %41, align 1
  %43 = sext i8 %42 to i32
  %44 = icmp ne i32 %43, 0
  br i1 %44, label %45, label %51

45:                                               ; preds = %38
  %46 = load i32, i32* %8, align 4
  %47 = add nsw i32 %46, 1
  store i32 %47, i32* %8, align 4
  br label %48

48:                                               ; preds = %45
  %49 = load i32, i32* %6, align 4
  %50 = add nsw i32 %49, 1
  store i32 %50, i32* %6, align 4
  br label %38

51:                                               ; preds = %38
  store i32 0, i32* %13, align 4
  store i32 0, i32* %16, align 4
  store i32 0, i32* %9, align 4
  br label %52

52:                                               ; preds = %181, %51
  %53 = load i32, i32* %9, align 4
  %54 = load i32, i32* %7, align 4
  %55 = load i32, i32* %8, align 4
  %56 = sub nsw i32 %54, %55
  %57 = icmp sle i32 %53, %56
  br i1 %57, label %58, label %184

58:                                               ; preds = %52
  store i32 0, i32* %12, align 4
  %59 = load i32, i32* %9, align 4
  %60 = sext i32 %59 to i64
  %61 = getelementptr inbounds [256 x i8], [256 x i8]* %2, i64 0, i64 %60
  %62 = load i8, i8* %61, align 1
  %63 = sext i8 %62 to i32
  %64 = getelementptr inbounds [256 x i8], [256 x i8]* %3, i64 0, i64 0
  %65 = load i8, i8* %64, align 16
  %66 = sext i8 %65 to i32
  %67 = icmp eq i32 %63, %66
  br i1 %67, label %68, label %180

68:                                               ; preds = %58
  %69 = load i32, i32* %9, align 4
  store i32 %69, i32* %11, align 4
  store i32 %69, i32* %14, align 4
  store i32 0, i32* %12, align 4
  br label %70

70:                                               ; preds = %129, %68
  %71 = load i32, i32* %12, align 4
  %72 = load i32, i32* %8, align 4
  %73 = sub nsw i32 %72, 1
  %74 = icmp sle i32 %71, %73
  br i1 %74, label %75, label %132

75:                                               ; preds = %70
  %76 = load i32, i32* %11, align 4
  %77 = sext i32 %76 to i64
  %78 = getelementptr inbounds [256 x i8], [256 x i8]* %2, i64 0, i64 %77
  %79 = load i8, i8* %78, align 1
  %80 = sext i8 %79 to i32
  %81 = load i32, i32* %12, align 4
  %82 = sext i32 %81 to i64
  %83 = getelementptr inbounds [256 x i8], [256 x i8]* %3, i64 0, i64 %82
  %84 = load i8, i8* %83, align 1
  %85 = sext i8 %84 to i32
  %86 = icmp ne i32 %80, %85
  br i1 %86, label %87, label %88

87:                                               ; preds = %75
  br label %132

88:                                               ; preds = %75
  %89 = load i32, i32* %12, align 4
  %90 = load i32, i32* %8, align 4
  %91 = sub nsw i32 %90, 1
  %92 = icmp eq i32 %89, %91
  br i1 %92, label %93, label %106

93:                                               ; preds = %88
  %94 = load i32, i32* %11, align 4
  %95 = sext i32 %94 to i64
  %96 = getelementptr inbounds [256 x i8], [256 x i8]* %2, i64 0, i64 %95
  %97 = load i8, i8* %96, align 1
  %98 = sext i8 %97 to i32
  %99 = load i32, i32* %12, align 4
  %100 = sext i32 %99 to i64
  %101 = getelementptr inbounds [256 x i8], [256 x i8]* %3, i64 0, i64 %100
  %102 = load i8, i8* %101, align 1
  %103 = sext i8 %102 to i32
  %104 = icmp eq i32 %98, %103
  br i1 %104, label %105, label %106

105:                                              ; preds = %93
  store i32 1, i32* %13, align 4
  br label %127

106:                                              ; preds = %93, %88
  %107 = load i32, i32* %11, align 4
  %108 = sext i32 %107 to i64
  %109 = getelementptr inbounds [256 x i8], [256 x i8]* %2, i64 0, i64 %108
  %110 = load i8, i8* %109, align 1
  %111 = sext i8 %110 to i32
  %112 = load i32, i32* %12, align 4
  %113 = sext i32 %112 to i64
  %114 = getelementptr inbounds [256 x i8], [256 x i8]* %3, i64 0, i64 %113
  %115 = load i8, i8* %114, align 1
  %116 = sext i8 %115 to i32
  %117 = icmp eq i32 %111, %116
  br i1 %117, label %118, label %126

118:                                              ; preds = %106
  %119 = load i32, i32* %12, align 4
  %120 = load i32, i32* %8, align 4
  %121 = sub nsw i32 %120, 1
  %122 = icmp ne i32 %119, %121
  br i1 %122, label %123, label %126

123:                                              ; preds = %118
  %124 = load i32, i32* %11, align 4
  %125 = add nsw i32 %124, 1
  store i32 %125, i32* %11, align 4
  br label %126

126:                                              ; preds = %123, %118, %106
  br label %127

127:                                              ; preds = %126, %105
  br label %128

128:                                              ; preds = %127
  br label %129

129:                                              ; preds = %128
  %130 = load i32, i32* %12, align 4
  %131 = add nsw i32 %130, 1
  store i32 %131, i32* %12, align 4
  br label %70

132:                                              ; preds = %87, %70
  %133 = load i32, i32* %13, align 4
  %134 = icmp eq i32 %133, 1
  br i1 %134, label %135, label %174

135:                                              ; preds = %132
  %136 = load i32, i32* %9, align 4
  store i32 %136, i32* %14, align 4
  br label %137

137:                                              ; preds = %154, %135
  %138 = load i32, i32* %14, align 4
  %139 = load i32, i32* %9, align 4
  %140 = load i32, i32* %8, align 4
  %141 = add nsw i32 %139, %140
  %142 = sub nsw i32 %141, 1
  %143 = icmp sle i32 %138, %142
  br i1 %143, label %144, label %157

144:                                              ; preds = %137
  %145 = load i32, i32* %14, align 4
  %146 = load i32, i32* %9, align 4
  %147 = sub nsw i32 %145, %146
  %148 = sext i32 %147 to i64
  %149 = getelementptr inbounds [256 x i8], [256 x i8]* %4, i64 0, i64 %148
  %150 = load i8, i8* %149, align 1
  %151 = load i32, i32* %14, align 4
  %152 = sext i32 %151 to i64
  %153 = getelementptr inbounds [256 x i8], [256 x i8]* %2, i64 0, i64 %152
  store i8 %150, i8* %153, align 1
  br label %154

154:                                              ; preds = %144
  %155 = load i32, i32* %14, align 4
  %156 = add nsw i32 %155, 1
  store i32 %156, i32* %14, align 4
  br label %137

157:                                              ; preds = %137
  store i32 0, i32* %15, align 4
  br label %158

158:                                              ; preds = %170, %157
  %159 = load i32, i32* %15, align 4
  %160 = load i32, i32* %7, align 4
  %161 = sub nsw i32 %160, 1
  %162 = icmp sle i32 %159, %161
  br i1 %162, label %163, label %173

163:                                              ; preds = %158
  %164 = load i32, i32* %15, align 4
  %165 = sext i32 %164 to i64
  %166 = getelementptr inbounds [256 x i8], [256 x i8]* %2, i64 0, i64 %165
  %167 = load i8, i8* %166, align 1
  %168 = sext i8 %167 to i32
  %169 = call i32 (i8*, ...) @printf(i8* getelementptr inbounds ([3 x i8], [3 x i8]* @.str.1, i64 0, i64 0), i32 %168)
  br label %170

170:                                              ; preds = %163
  %171 = load i32, i32* %15, align 4
  %172 = add nsw i32 %171, 1
  store i32 %172, i32* %15, align 4
  br label %158

173:                                              ; preds = %158
  store i32 1, i32* %16, align 4
  br label %184

174:                                              ; preds = %132
  %175 = load i32, i32* %13, align 4
  %176 = icmp eq i32 %175, 0
  br i1 %176, label %177, label %178

177:                                              ; preds = %174
  br label %181

178:                                              ; preds = %174
  br label %179

179:                                              ; preds = %178
  br label %180

180:                                              ; preds = %179, %58
  br label %181

181:                                              ; preds = %180, %177
  %182 = load i32, i32* %9, align 4
  %183 = add nsw i32 %182, 1
  store i32 %183, i32* %9, align 4
  br label %52

184:                                              ; preds = %173, %52
  %185 = load i32, i32* %16, align 4
  %186 = icmp eq i32 %185, 0
  br i1 %186, label %187, label %204

187:                                              ; preds = %184
  store i32 0, i32* %17, align 4
  br label %188

188:                                              ; preds = %200, %187
  %189 = load i32, i32* %17, align 4
  %190 = load i32, i32* %7, align 4
  %191 = sub nsw i32 %190, 1
  %192 = icmp sle i32 %189, %191
  br i1 %192, label %193, label %203

193:                                              ; preds = %188
  %194 = load i32, i32* %17, align 4
  %195 = sext i32 %194 to i64
  %196 = getelementptr inbounds [256 x i8], [256 x i8]* %2, i64 0, i64 %195
  %197 = load i8, i8* %196, align 1
  %198 = sext i8 %197 to i32
  %199 = call i32 (i8*, ...) @printf(i8* getelementptr inbounds ([3 x i8], [3 x i8]* @.str.1, i64 0, i64 0), i32 %198)
  br label %200

200:                                              ; preds = %193
  %201 = load i32, i32* %17, align 4
  %202 = add nsw i32 %201, 1
  store i32 %202, i32* %17, align 4
  br label %188

203:                                              ; preds = %188
  br label %204

204:                                              ; preds = %203, %184
  %205 = call i32 @getchar()
  %206 = call i32 @getchar()
  %207 = call i32 @getchar()
  %208 = call i32 @getchar()
  %209 = call i32 @getchar()
  %210 = call i32 @getchar()
  %211 = load i32, i32* %1, align 4
  ret i32 %211
}

declare dso_local i32 @__isoc99_scanf(i8*, ...) #1

declare dso_local i32 @printf(i8*, ...) #1

declare dso_local i32 @getchar() #1


!llvm.module.flags = !{!0}
!llvm.ident = !{!1}

!0 = !{i32 1, !"wchar_size", i32 4}
!1 = !{!"clang version 10.0.0-4ubuntu1 "}
